target datalayout = "e-m:e-p270:32:32-p271:32:32-p272:64:64-i64:64-i128:128-f80:128-n8:16:32:64-S128"
target triple = "x86_64-pc-linux-gnu"

%struct._object = type { %union.anon, ptr }
%union.anon = type { i64 }
%struct.mapobject = type { %struct._object, ptr, ptr, i32 }

@_Py_NoneStruct = external global %struct._object, align 8

; Function Attrs: nounwind uwtable
define internal ptr @map_setstate(ptr noundef %0, ptr noundef %1) #0 {
  %3 = alloca ptr, align 8
  %4 = alloca ptr, align 8
  %5 = alloca ptr, align 8
  %6 = alloca i32, align 4
  %7 = alloca i32, align 4
  %8 = alloca ptr, align 8
  store ptr %0, ptr %4, align 8, !tbaa !4
  store ptr %1, ptr %5, align 8, !tbaa !4
  call void @llvm.lifetime.start.p0(i64 4, ptr %6) #9
  %9 = load ptr, ptr %5, align 8, !tbaa !4
  %10 = call i32 @PyObject_IsTrue(ptr noundef %9)
  store i32 %10, ptr %6, align 4, !tbaa !38
  %11 = load i32, ptr %6, align 4, !tbaa !38
  %12 = icmp slt i32 %11, 0
  br i1 %12, label %13, label %14

13:                                               ; preds = %2
  store ptr null, ptr %3, align 8
  store i32 1, ptr %7, align 4
  br label %19

14:                                               ; preds = %2
  call void @llvm.lifetime.start.p0(i64 8, ptr %8) #9
  %15 = load ptr, ptr %4, align 8, !tbaa !4
  store ptr %15, ptr %8, align 8, !tbaa !9
  %16 = load i32, ptr %6, align 4, !tbaa !38
  %17 = load ptr, ptr %8, align 8, !tbaa !9
  %18 = getelementptr inbounds nuw %struct.mapobject, ptr %17, i32 0, i32 3
  store i32 %16, ptr %18, align 8, !tbaa !48
  store ptr @_Py_NoneStruct, ptr %3, align 8
  store i32 1, ptr %7, align 4
  call void @llvm.lifetime.end.p0(i64 8, ptr %8) #9
  br label %19

19:                                               ; preds = %14, %13
  call void @llvm.lifetime.end.p0(i64 4, ptr %6) #9
  %20 = load ptr, ptr %3, align 8
  ret ptr %20
}