; Function Attrs: nounwind uwtable
define internal noundef ptr @map_setstate(ptr noundef writeonly captures(none) %0, ptr noundef %1) #0 {
  %3 = tail call i32 @PyObject_IsTrue(ptr noundef %1) #9
  %4 = icmp slt i32 %3, 0
  br i1 %4, label %7, label %5

5:                                                ; preds = %2
  %6 = getelementptr inbounds nuw i8, ptr %0, i64 32
  store i32 %3, ptr %6, align 8, !tbaa !46
  br label %7

7:                                                ; preds = %2, %5
  %.0 = phi ptr [ @_Py_NoneStruct, %5 ], [ null, %2 ]
  ret ptr %.0
}